target datalayout = "e-m:e-p270:32:32-p271:32:32-p272:64:64-i64:64-i128:128-f80:128-n8:16:32:64-S128"
target triple = "x86_64-pc-linux-gnu"

%union.pthread_mutex_t = type { %struct.__pthread_mutex_s }
%struct.__pthread_mutex_s = type { i32, i32, i32, i32, i32, i16, i16, %struct.__pthread_internal_list }
%struct.__pthread_internal_list = type { ptr, ptr }
%struct.pmix_tma = type { ptr, ptr, ptr, ptr, ptr, ptr, ptr, ptr }
%struct.fc_pair = type { %struct.pmix_list_item_t, ptr, ptr }
%struct.pmix_list_item_t = type { %struct.pmix_object_t, ptr, ptr, i32 }
%struct.pmix_object_t = type { %union.pthread_mutex_t, ptr, i32, %struct.pmix_tma }
%struct.pmix_list_t = type { %struct.pmix_object_t, %struct.pmix_list_item_t, i64 }

@show_load_errors = internal global i32 0, align 4

; Function Attrs: nounwind uwtable
define zeroext i1 @pmix_mca_base_show_load_errors(ptr noundef %0, ptr noundef %1) #0 {
  %3 = alloca i1, align 1
  %4 = alloca ptr, align 8
  %5 = alloca ptr, align 8
  %6 = alloca ptr, align 8
  %7 = alloca i8, align 1
  %8 = alloca ptr, align 8
  %9 = alloca i32, align 4
  store ptr %0, ptr %4, align 8, !tbaa !24
  store ptr %1, ptr %5, align 8, !tbaa !24
  %10 = load i32, ptr @show_load_errors, align 4, !tbaa !18
  %11 = icmp eq i32 0, %10
  br i1 %11, label %12, label %13

12:                                               ; preds = %2
  store i1 true, ptr %3, align 1
  br label %72

13:                                               ; preds = %2
  %14 = load i32, ptr @show_load_errors, align 4, !tbaa !18
  %15 = icmp eq i32 3, %14
  br i1 %15, label %16, label %17

16:                                               ; preds = %13
  store i1 false, ptr %3, align 1
  br label %72

17:                                               ; preds = %13
  br label %18

18:                                               ; preds = %17
  %19 = load ptr, ptr %4, align 8, !tbaa !24
  %20 = icmp eq ptr null, %19
  br i1 %20, label %21, label %22

21:                                               ; preds = %18
  store i1 false, ptr %3, align 1
  br label %72

22:                                               ; preds = %18
  call void @llvm.lifetime.start.p0(i64 8, ptr %6) #11
  call void @llvm.lifetime.start.p0(i64 1, ptr %7) #11
  %23 = load i32, ptr @show_load_errors, align 4, !tbaa !18
  %24 = icmp eq i32 1, %23
  br i1 %24, label %25, label %26

25:                                               ; preds = %22
  store ptr @show_load_errors_include, ptr %6, align 8, !tbaa !26
  store i8 1, ptr %7, align 1, !tbaa !56
  br label %27

26:                                               ; preds = %22
  store ptr @show_load_errors_exclude, ptr %6, align 8, !tbaa !26
  store i8 0, ptr %7, align 1, !tbaa !56
  br label %27

27:                                               ; preds = %26, %25
  call void @llvm.lifetime.start.p0(i64 8, ptr %8) #11
  %28 = load ptr, ptr %6, align 8, !tbaa !26
  %29 = getelementptr inbounds nuw %struct.pmix_list_t, ptr %28, i32 0, i32 1
  %30 = getelementptr inbounds nuw %struct.pmix_list_item_t, ptr %29, i32 0, i32 1
  %31 = load ptr, ptr %30, align 8, !tbaa !58
  store ptr %31, ptr %8, align 8, !tbaa !3
  br label %32

32:                                               ; preds = %63, %27
  %33 = load ptr, ptr %8, align 8, !tbaa !3
  %34 = load ptr, ptr %6, align 8, !tbaa !26
  %35 = getelementptr inbounds nuw %struct.pmix_list_t, ptr %34, i32 0, i32 1
  %36 = icmp ne ptr %33, %35
  br i1 %36, label %37, label %67

37:                                               ; preds = %32
  %38 = load ptr, ptr %4, align 8, !tbaa !24
  %39 = load ptr, ptr %8, align 8, !tbaa !3
  %40 = getelementptr inbounds nuw %struct.fc_pair, ptr %39, i32 0, i32 1
  %41 = load ptr, ptr %40, align 8, !tbaa !8
  %42 = call i32 @strcmp(ptr noundef %38, ptr noundef %41) #12
  %43 = icmp eq i32 0, %42
  br i1 %43, label %44, label %62

44:                                               ; preds = %37
  %45 = load ptr, ptr %5, align 8, !tbaa !24
  %46 = icmp eq ptr null, %45
  br i1 %46, label %47, label %50

47:                                               ; preds = %44
  %48 = load i8, ptr %7, align 1, !tbaa !56, !range !59, !noundef !60
  %49 = trunc i8 %48 to i1
  store i1 %49, ptr %3, align 1
  store i32 1, ptr %9, align 4
  br label %71

50:                                               ; preds = %44
  %51 = load ptr, ptr %5, align 8, !tbaa !24
  %52 = load ptr, ptr %8, align 8, !tbaa !3
  %53 = getelementptr inbounds nuw %struct.fc_pair, ptr %52, i32 0, i32 2
  %54 = load ptr, ptr %53, align 8, !tbaa !17
  %55 = call i32 @strcmp(ptr noundef %51, ptr noundef %54) #12
  %56 = icmp eq i32 0, %55
  br i1 %56, label %57, label %60

57:                                               ; preds = %50
  %58 = load i8, ptr %7, align 1, !tbaa !56, !range !59, !noundef !60
  %59 = trunc i8 %58 to i1
  store i1 %59, ptr %3, align 1
  store i32 1, ptr %9, align 4
  br label %71

60:                                               ; preds = %50
  br label %61

61:                                               ; preds = %60
  br label %62

62:                                               ; preds = %61, %37
  br label %63

63:                                               ; preds = %62
  %64 = load ptr, ptr %8, align 8, !tbaa !3
  %65 = getelementptr inbounds nuw %struct.pmix_list_item_t, ptr %64, i32 0, i32 1
  %66 = load ptr, ptr %65, align 8, !tbaa !53
  store ptr %66, ptr %8, align 8, !tbaa !3
  br label %32, !llvm.loop !61

67:                                               ; preds = %32
  %68 = load i8, ptr %7, align 1, !tbaa !56, !range !59, !noundef !60
  %69 = trunc i8 %68 to i1
  %70 = xor i1 %69, true
  store i1 %70, ptr %3, align 1
  store i32 1, ptr %9, align 4
  br label %71

71:                                               ; preds = %67, %57, %47
  call void @llvm.lifetime.end.p0(i64 8, ptr %8) #11
  call void @llvm.lifetime.end.p0(i64 1, ptr %7) #11
  call void @llvm.lifetime.end.p0(i64 8, ptr %6) #11
  br label %72

72:                                               ; preds = %71, %21, %16, %12
  %73 = load i1, ptr %3, align 1
  ret i1 %73
}