; Function Attrs: nofree nounwind memory(read, inaccessiblemem: none) uwtable
define noundef zeroext i1 @pmix_mca_base_show_load_errors(ptr noundef readonly captures(address_is_null) %0, ptr noundef readonly captures(address_is_null) %1) local_unnamed_addr #6 {
  %3 = load i32, ptr @show_load_errors, align 4, !tbaa !16
  switch i32 %3, label %5 [
    i32 0, label %.loopexit
    i32 3, label %4
  ]

4:                                                ; preds = %2
  br label %.loopexit

5:                                                ; preds = %2
  %6 = icmp eq ptr %0, null
  br i1 %6, label %.loopexit, label %7

7:                                                ; preds = %5
  %8 = icmp eq i32 %3, 1
  %9 = select i1 %8, ptr getelementptr inbounds nuw (i8, ptr @show_load_errors_include, i64 120), ptr getelementptr inbounds nuw (i8, ptr @show_load_errors_exclude, i64 120)
  %.val = load ptr, ptr getelementptr inbounds nuw (i8, ptr @show_load_errors_include, i64 240), align 8
  %.val22 = load ptr, ptr getelementptr inbounds nuw (i8, ptr @show_load_errors_exclude, i64 240), align 8
  %.019 = select i1 %8, ptr %.val, ptr %.val22
  %.not20 = icmp eq ptr %.019, %9
  br i1 %.not20, label %._crit_edge, label %.lr.ph

.lr.ph:                                           ; preds = %7
  %10 = icmp eq ptr %1, null
  br i1 %10, label %.lr.ph.split.us, label %.lr.ph.split

.lr.ph.split.us:                                  ; preds = %.lr.ph, %15
  %.021.us = phi ptr [ %.0.us, %15 ], [ %.019, %.lr.ph ]
  %11 = getelementptr inbounds nuw i8, ptr %.021.us, i64 144
  %12 = load ptr, ptr %11, align 8, !tbaa !3
  %13 = tail call i32 @strcmp(ptr noundef nonnull dereferenceable(1) %0, ptr noundef nonnull dereferenceable(1) %12) #16
  %14 = icmp eq i32 %13, 0
  br i1 %14, label %.loopexit, label %15

15:                                               ; preds = %.lr.ph.split.us
  %16 = getelementptr inbounds nuw i8, ptr %.021.us, i64 120
  %.0.us = load ptr, ptr %16, align 8, !tbaa !30
  %.not.us = icmp eq ptr %.0.us, %9
  br i1 %.not.us, label %._crit_edge, label %.lr.ph.split.us, !llvm.loop !34

.lr.ph.split:                                     ; preds = %.lr.ph, %26
  %.021 = phi ptr [ %.0, %26 ], [ %.019, %.lr.ph ]
  %17 = getelementptr inbounds nuw i8, ptr %.021, i64 144
  %18 = load ptr, ptr %17, align 8, !tbaa !3
  %19 = tail call i32 @strcmp(ptr noundef nonnull dereferenceable(1) %0, ptr noundef nonnull dereferenceable(1) %18) #16
  %20 = icmp eq i32 %19, 0
  br i1 %20, label %21, label %26

21:                                               ; preds = %.lr.ph.split
  %22 = getelementptr inbounds nuw i8, ptr %.021, i64 152
  %23 = load ptr, ptr %22, align 8, !tbaa !15
  %24 = tail call i32 @strcmp(ptr noundef nonnull dereferenceable(1) %1, ptr noundef nonnull dereferenceable(1) %23) #16
  %25 = icmp eq i32 %24, 0
  br i1 %25, label %.loopexit, label %26

26:                                               ; preds = %.lr.ph.split, %21
  %27 = getelementptr inbounds nuw i8, ptr %.021, i64 120
  %.0 = load ptr, ptr %27, align 8, !tbaa !30
  %.not = icmp eq ptr %.0, %9
  br i1 %.not, label %._crit_edge, label %.lr.ph.split, !llvm.loop !34

._crit_edge:                                      ; preds = %26, %15, %7
  %28 = xor i1 %8, true
  br label %.loopexit

.loopexit:                                        ; preds = %21, %.lr.ph.split.us, %._crit_edge, %5, %2, %4
  %.015 = phi i1 [ false, %4 ], [ true, %2 ], [ false, %5 ], [ %28, %._crit_edge ], [ %8, %.lr.ph.split.us ], [ %8, %21 ]
  ret i1 %.015
}